; Function Attrs: nounwind uwtable
define ptr @l_Lean_Compiler_LCNF_Simp_inlineProjInst_x3f_visit___lambda__1(ptr noundef %0, ptr noundef %1, ptr noundef %2, ptr noundef %3, ptr noundef %4, ptr noundef %5, ptr noundef %6, ptr noundef %7, ptr noundef %8, ptr noundef %9, ptr noundef %10) local_unnamed_addr #0 {
  %12 = tail call zeroext i8 @l_List_isEmpty___rarg(ptr noundef %0) #3
  %13 = icmp eq i8 %12, 0
  br i1 %13, label %14, label %16

14:                                               ; preds = %11
  %15 = tail call ptr @l_Lean_Compiler_LCNF_Simp_inlineProjInst_x3f_visit(ptr noundef %1, ptr noundef %0, ptr noundef %2, ptr noundef %3, ptr noundef %4, ptr noundef %5, ptr noundef %6, ptr noundef %7, ptr noundef %8, ptr noundef %9, ptr noundef %10)
  br label %109

16:                                               ; preds = %11
  %17 = ptrtoint ptr %9 to i64
  %18 = and i64 %17, 1
  %.not = icmp eq i64 %18, 0
  br i1 %.not, label %19, label %lean_dec.exit

19:                                               ; preds = %16
  %20 = load i32, ptr %9, align 4, !tbaa !8
  %21 = icmp sgt i32 %20, 1
  br i1 %21, label %22, label %24, !prof !11

22:                                               ; preds = %19
  %23 = add nsw i32 %20, -1
  store i32 %23, ptr %9, align 4, !tbaa !8
  br label %lean_dec.exit

24:                                               ; preds = %19
  %.not.i52 = icmp eq i32 %20, 0
  br i1 %.not.i52, label %lean_dec.exit, label %25

25:                                               ; preds = %24
  tail call void @lean_dec_ref_cold(ptr noundef nonnull %9) #3
  br label %lean_dec.exit

lean_dec.exit:                                    ; preds = %25, %24, %22, %16
  %26 = ptrtoint ptr %8 to i64
  %27 = and i64 %26, 1
  %.not55 = icmp eq i64 %27, 0
  br i1 %.not55, label %28, label %lean_dec.exit30

28:                                               ; preds = %lean_dec.exit
  %29 = load i32, ptr %8, align 4, !tbaa !8
  %30 = icmp sgt i32 %29, 1
  br i1 %30, label %31, label %33, !prof !11

31:                                               ; preds = %28
  %32 = add nsw i32 %29, -1
  store i32 %32, ptr %8, align 4, !tbaa !8
  br label %lean_dec.exit30

33:                                               ; preds = %28
  %.not.i50 = icmp eq i32 %29, 0
  br i1 %.not.i50, label %lean_dec.exit30, label %34

34:                                               ; preds = %33
  tail call void @lean_dec_ref_cold(ptr noundef nonnull %8) #3
  br label %lean_dec.exit30

lean_dec.exit30:                                  ; preds = %34, %33, %31, %lean_dec.exit
  %35 = ptrtoint ptr %7 to i64
  %36 = and i64 %35, 1
  %.not56 = icmp eq i64 %36, 0
  br i1 %.not56, label %37, label %lean_dec.exit31

37:                                               ; preds = %lean_dec.exit30
  %38 = load i32, ptr %7, align 4, !tbaa !8
  %39 = icmp sgt i32 %38, 1
  br i1 %39, label %40, label %42, !prof !11

40:                                               ; preds = %37
  %41 = add nsw i32 %38, -1
  store i32 %41, ptr %7, align 4, !tbaa !8
  br label %lean_dec.exit31

42:                                               ; preds = %37
  %.not.i48 = icmp eq i32 %38, 0
  br i1 %.not.i48, label %lean_dec.exit31, label %43

43:                                               ; preds = %42
  tail call void @lean_dec_ref_cold(ptr noundef nonnull %7) #3
  br label %lean_dec.exit31

lean_dec.exit31:                                  ; preds = %43, %42, %40, %lean_dec.exit30
  %44 = ptrtoint ptr %6 to i64
  %45 = and i64 %44, 1
  %.not57 = icmp eq i64 %45, 0
  br i1 %.not57, label %46, label %lean_dec.exit32

46:                                               ; preds = %lean_dec.exit31
  %47 = load i32, ptr %6, align 4, !tbaa !8
  %48 = icmp sgt i32 %47, 1
  br i1 %48, label %49, label %51, !prof !11

49:                                               ; preds = %46
  %50 = add nsw i32 %47, -1
  store i32 %50, ptr %6, align 4, !tbaa !8
  br label %lean_dec.exit32

51:                                               ; preds = %46
  %.not.i46 = icmp eq i32 %47, 0
  br i1 %.not.i46, label %lean_dec.exit32, label %52

52:                                               ; preds = %51
  tail call void @lean_dec_ref_cold(ptr noundef nonnull %6) #3
  br label %lean_dec.exit32

lean_dec.exit32:                                  ; preds = %52, %51, %49, %lean_dec.exit31
  %53 = ptrtoint ptr %5 to i64
  %54 = and i64 %53, 1
  %.not58 = icmp eq i64 %54, 0
  br i1 %.not58, label %55, label %lean_dec.exit33

55:                                               ; preds = %lean_dec.exit32
  %56 = load i32, ptr %5, align 4, !tbaa !8
  %57 = icmp sgt i32 %56, 1
  br i1 %57, label %58, label %60, !prof !11

58:                                               ; preds = %55
  %59 = add nsw i32 %56, -1
  store i32 %59, ptr %5, align 4, !tbaa !8
  br label %lean_dec.exit33

60:                                               ; preds = %55
  %.not.i44 = icmp eq i32 %56, 0
  br i1 %.not.i44, label %lean_dec.exit33, label %61

61:                                               ; preds = %60
  tail call void @lean_dec_ref_cold(ptr noundef nonnull %5) #3
  br label %lean_dec.exit33

lean_dec.exit33:                                  ; preds = %61, %60, %58, %lean_dec.exit32
  %62 = ptrtoint ptr %4 to i64
  %63 = and i64 %62, 1
  %.not59 = icmp eq i64 %63, 0
  br i1 %.not59, label %64, label %lean_dec.exit34

64:                                               ; preds = %lean_dec.exit33
  %65 = load i32, ptr %4, align 4, !tbaa !8
  %66 = icmp sgt i32 %65, 1
  br i1 %66, label %67, label %69, !prof !11

67:                                               ; preds = %64
  %68 = add nsw i32 %65, -1
  store i32 %68, ptr %4, align 4, !tbaa !8
  br label %lean_dec.exit34

69:                                               ; preds = %64
  %.not.i42 = icmp eq i32 %65, 0
  br i1 %.not.i42, label %lean_dec.exit34, label %70

70:                                               ; preds = %69
  tail call void @lean_dec_ref_cold(ptr noundef nonnull %4) #3
  br label %lean_dec.exit34

lean_dec.exit34:                                  ; preds = %70, %69, %67, %lean_dec.exit33
  %71 = ptrtoint ptr %3 to i64
  %72 = and i64 %71, 1
  %.not60 = icmp eq i64 %72, 0
  br i1 %.not60, label %73, label %lean_dec.exit35

73:                                               ; preds = %lean_dec.exit34
  %74 = load i32, ptr %3, align 4, !tbaa !8
  %75 = icmp sgt i32 %74, 1
  br i1 %75, label %76, label %78, !prof !11

76:                                               ; preds = %73
  %77 = add nsw i32 %74, -1
  store i32 %77, ptr %3, align 4, !tbaa !8
  br label %lean_dec.exit35

78:                                               ; preds = %73
  %.not.i40 = icmp eq i32 %74, 0
  br i1 %.not.i40, label %lean_dec.exit35, label %79

79:                                               ; preds = %78
  tail call void @lean_dec_ref_cold(ptr noundef nonnull %3) #3
  br label %lean_dec.exit35

lean_dec.exit35:                                  ; preds = %79, %78, %76, %lean_dec.exit34
  %80 = ptrtoint ptr %2 to i64
  %81 = and i64 %80, 1
  %.not61 = icmp eq i64 %81, 0
  br i1 %.not61, label %82, label %lean_dec.exit36

82:                                               ; preds = %lean_dec.exit35
  %83 = load i32, ptr %2, align 4, !tbaa !8
  %84 = icmp sgt i32 %83, 1
  br i1 %84, label %85, label %87, !prof !11

85:                                               ; preds = %82
  %86 = add nsw i32 %83, -1
  store i32 %86, ptr %2, align 4, !tbaa !8
  br label %lean_dec.exit36

87:                                               ; preds = %82
  %.not.i38 = icmp eq i32 %83, 0
  br i1 %.not.i38, label %lean_dec.exit36, label %88

88:                                               ; preds = %87
  tail call void @lean_dec_ref_cold(ptr noundef nonnull %2) #3
  br label %lean_dec.exit36

lean_dec.exit36:                                  ; preds = %88, %87, %85, %lean_dec.exit35
  %89 = ptrtoint ptr %0 to i64
  %90 = and i64 %89, 1
  %.not62 = icmp eq i64 %90, 0
  br i1 %.not62, label %91, label %lean_dec.exit37

91:                                               ; preds = %lean_dec.exit36
  %92 = load i32, ptr %0, align 4, !tbaa !8
  %93 = icmp sgt i32 %92, 1
  br i1 %93, label %94, label %96, !prof !11

94:                                               ; preds = %91
  %95 = add nsw i32 %92, -1
  store i32 %95, ptr %0, align 4, !tbaa !8
  br label %lean_dec.exit37

96:                                               ; preds = %91
  %.not.i = icmp eq i32 %92, 0
  br i1 %.not.i, label %lean_dec.exit37, label %97

97:                                               ; preds = %96
  tail call void @lean_dec_ref_cold(ptr noundef nonnull %0) #3
  br label %lean_dec.exit37

lean_dec.exit37:                                  ; preds = %97, %96, %94, %lean_dec.exit36
  tail call void @lean_inc_heartbeat() #3
  %98 = tail call noalias ptr @mi_malloc_small(i64 noundef 16) #3
  %99 = icmp eq ptr %98, null
  br i1 %99, label %100, label %lean_alloc_ctor.exit

100:                                              ; preds = %lean_dec.exit37
  tail call void @lean_internal_panic_out_of_memory() #4
  unreachable

lean_alloc_ctor.exit:                             ; preds = %lean_dec.exit37
  %101 = getelementptr inbounds nuw i8, ptr %98, i64 4
  store i32 1, ptr %98, align 4, !tbaa !8
  store i32 16842768, ptr %101, align 4
  %102 = getelementptr inbounds nuw i8, ptr %98, i64 8
  store ptr %1, ptr %102, align 8, !tbaa !4
  tail call void @lean_inc_heartbeat() #3
  %103 = tail call noalias ptr @mi_malloc_small(i64 noundef 24) #3
  %104 = icmp eq ptr %103, null
  br i1 %104, label %105, label %lean_alloc_ctor.exit54

105:                                              ; preds = %lean_alloc_ctor.exit
  tail call void @lean_internal_panic_out_of_memory() #4
  unreachable

lean_alloc_ctor.exit54:                           ; preds = %lean_alloc_ctor.exit
  %106 = getelementptr inbounds nuw i8, ptr %103, i64 4
  store i32 1, ptr %103, align 4, !tbaa !8
  store i32 131096, ptr %106, align 4
  %107 = getelementptr inbounds nuw i8, ptr %103, i64 8
  store ptr %98, ptr %107, align 8, !tbaa !4
  %108 = getelementptr inbounds nuw i8, ptr %103, i64 16
  store ptr %10, ptr %108, align 8, !tbaa !4
  br label %109

109:                                              ; preds = %lean_alloc_ctor.exit54, %14
  %.0 = phi ptr [ %15, %14 ], [ %103, %lean_alloc_ctor.exit54 ]
  ret ptr %.0
}